; Function Attrs: nofree norecurse nosync nounwind memory(none) uwtable
define noundef ptr @ff_dnxhd_get_cid_table(i32 noundef %0) local_unnamed_addr #0 {
  br label %3

2:                                                ; preds = %3
  %indvars.iv.next = add nuw nsw i64 %indvars.iv, 1
  %exitcond = icmp eq i64 %indvars.iv.next, 20
  br i1 %exitcond, label %7, label %3, !llvm.loop !4

3:                                                ; preds = %1, %2
  %indvars.iv = phi i64 [ 0, %1 ], [ %indvars.iv.next, %2 ]
  %4 = getelementptr inbounds nuw [20 x %struct.CIDEntry], ptr @dnxhd_cid_table, i64 0, i64 %indvars.iv
  %5 = load i32, ptr %4, align 8, !tbaa !6
  %6 = icmp eq i32 %5, %0
  br i1 %6, label %7, label %2

7:                                                ; preds = %3, %2
  %spec.select = phi ptr [ null, %2 ], [ %4, %3 ]
  ret ptr %spec.select
}